; Function Attrs: mustprogress nounwind uwtable
define hidden void @_ZN3euf6etableD2Ev(ptr nocapture noundef nonnull align 8 dereferenceable(48) %this) unnamed_addr #5 align 2 personality ptr @__gxx_personality_v0 {
entry:
  invoke void @_ZN3euf6etable5resetEv(ptr noundef nonnull align 8 dereferenceable(48) %this)
          to label %invoke.cont unwind label %terminate.lpad

invoke.cont:                                      ; preds = %entry
  %m_func_decl2id = getelementptr inbounds i8, ptr %this, i64 24
  %0 = load ptr, ptr %m_func_decl2id, align 8
  %cmp.i.i.i.i.i = icmp eq ptr %0, null
  br i1 %cmp.i.i.i.i.i, label %_ZN3mapISt4pairIP9func_decljEjN3euf6etable9decl_hashENS5_7decl_eqEED2Ev.exit, label %for.cond.preheader.i.i.i.i.i

for.cond.preheader.i.i.i.i.i:                     ; preds = %invoke.cont
  invoke void @_ZN6memory10deallocateEPv(ptr noundef nonnull %0)
          to label %_ZN3mapISt4pairIP9func_decljEjN3euf6etable9decl_hashENS5_7decl_eqEED2Ev.exit unwind label %terminate.lpad.i.i.i

terminate.lpad.i.i.i:                             ; preds = %for.cond.preheader.i.i.i.i.i
  %1 = landingpad { ptr, i32 }
          catch ptr null
  %2 = extractvalue { ptr, i32 } %1, 0
  tail call void @__clang_call_terminate(ptr %2) #16
  unreachable

_ZN3mapISt4pairIP9func_decljEjN3euf6etable9decl_hashENS5_7decl_eqEED2Ev.exit: ; preds = %invoke.cont, %for.cond.preheader.i.i.i.i.i
  store ptr null, ptr %m_func_decl2id, align 8
  %m_tables = getelementptr inbounds i8, ptr %this, i64 16
  %3 = load ptr, ptr %m_tables, align 8
  %tobool.not.i.i.i = icmp eq ptr %3, null
  br i1 %tobool.not.i.i.i, label %_ZN10ptr_vectorIvED2Ev.exit, label %if.then.i.i.i

if.then.i.i.i:                                    ; preds = %_ZN3mapISt4pairIP9func_decljEjN3euf6etable9decl_hashENS5_7decl_eqEED2Ev.exit
  %add.ptr.i.i.i.i = getelementptr inbounds i8, ptr %3, i64 -8
  invoke void @_ZN6memory10deallocateEPv(ptr noundef nonnull %add.ptr.i.i.i.i)
          to label %_ZN10ptr_vectorIvED2Ev.exit unwind label %terminate.lpad.i.i

terminate.lpad.i.i:                               ; preds = %if.then.i.i.i
  %4 = landingpad { ptr, i32 }
          catch ptr null
  %5 = extractvalue { ptr, i32 } %4, 0
  tail call void @__clang_call_terminate(ptr %5) #16
  unreachable

_ZN10ptr_vectorIvED2Ev.exit:                      ; preds = %_ZN3mapISt4pairIP9func_decljEjN3euf6etable9decl_hashENS5_7decl_eqEED2Ev.exit, %if.then.i.i.i
  ret void

terminate.lpad:                                   ; preds = %entry
  %6 = landingpad { ptr, i32 }
          catch ptr null
  %7 = extractvalue { ptr, i32 } %6, 0
  tail call void @__clang_call_terminate(ptr %7) #16
  unreachable
}